Certificate:
    Data:
        Version: 3 (0x2)
        Serial Number: 1 (0x1)
        Signature Algorithm: sha256WithRSAEncryption
        Issuer: C=BR, ST=Paran\xC3\x83\xC2\xA1, L=Curitiba, O=UTFPR, CN=Alexandre H Matias/emailAddress=alexandrehmatias@hotmail.com
        Validity
            Not Before: Mar  4 22:45:39 2021 GMT
            Not After : Mar  4 22:45:39 2022 GMT
        Subject: C=BR, ST=Paran\xC3\x83\xC2\xA1, L=Maring\xC3\x83\xC2\xA1, O=Internet Widgits Pty Ltd, CN=Galo Cego/emailAddress=galo@cego.com
        Subject Public Key Info:
            Public Key Algorithm: rsaEncryption
                RSA Public-Key: (2048 bit)
                Modulus:
                    00:aa:57:a4:65:da:61:30:75:ec:f9:c4:db:19:ab:
                    ac:3d:f2:ed:b9:82:fd:41:a7:48:b2:a2:f4:c3:74:
                    31:dc:75:9b:71:84:b3:55:90:82:e8:3e:3c:d4:71:
                    52:52:f4:6d:da:bb:db:c0:13:64:69:0e:6b:25:b2:
                    b6:cb:bb:86:ab:e8:8f:0d:f9:d7:ab:2a:c6:8b:3e:
                    76:da:cc:3c:3c:47:6d:2d:58:d5:b5:df:aa:93:79:
                    30:ba:10:25:7f:ca:aa:51:d6:98:eb:d2:f5:2d:49:
                    52:27:a9:db:12:b9:46:2b:72:4f:4a:60:a5:30:ad:
                    37:75:52:6c:8d:d7:df:8b:ea:b8:87:25:e6:2b:e5:
                    70:a4:4b:cb:a1:53:11:7b:f5:40:b6:64:83:a3:33:
                    0e:72:67:f5:70:47:aa:dd:cb:0a:bc:b0:60:84:d0:
                    97:fd:f3:5f:bd:36:63:8b:9c:07:a5:7e:52:03:92:
                    a8:b0:16:ad:7d:45:e9:e0:ce:63:b7:95:ba:90:0a:
                    22:cb:d2:da:a9:71:c4:54:4d:9c:35:b0:38:11:4f:
                    6a:31:93:cc:cb:dc:49:a3:23:9b:f4:3f:29:1f:17:
                    81:48:fb:67:a5:f3:c9:52:5b:3d:f1:fa:6c:d5:89:
                    39:ba:ca:c7:c4:90:2e:07:d8:4c:c6:50:b1:cc:d9:
                    b4:19
                Exponent: 65537 (0x10001)
        X509v3 extensions:
            X509v3 Basic Constraints: 
                CA:FALSE
            Netscape Comment: 
                OpenSSL Generated Certificate
            X509v3 Subject Key Identifier: 
                88:ED:12:54:3F:61:9D:F8:AB:CE:46:91:98:32:E2:61:1F:DE:61:AA
            X509v3 Authority Key Identifier: 
                keyid:EB:6D:9F:EF:0F:B7:02:03:E8:FA:3F:26:F3:0B:4A:A4:5E:95:5D:38

    Signature Algorithm: sha256WithRSAEncryption
         85:ec:71:29:08:45:24:98:61:8e:e6:f4:e3:10:7e:3d:f6:fc:
         3f:ad:e1:30:7d:ff:e4:8d:8f:e6:b0:cd:ca:8a:46:57:d2:72:
         16:a7:da:b6:fe:16:9b:48:68:72:66:2a:be:7e:ac:80:4a:78:
         33:03:5c:e9:4c:0f:5c:df:ab:b5:16:47:76:5d:a8:a2:a8:32:
         b9:cb:5e:73:35:27:04:db:05:84:14:66:c5:d6:95:af:a8:55:
         54:51:d0:73:3c:5e:17:70:29:3d:f3:97:aa:1b:bf:93:60:ad:
         0b:68:4b:e5:99:16:8e:27:2f:fb:7c:0a:97:00:f3:b5:1f:81:
         f0:85:7a:1e:4c:bf:0f:eb:ba:76:98:e9:3b:ab:8a:c0:51:0f:
         22:7d:59:b4:39:e2:86:46:dd:6c:6e:4e:dc:5d:0d:3e:2d:63:
         90:c8:49:7d:08:32:61:0e:f1:d2:75:92:ca:8b:f8:bf:6a:d6:
         84:8e:37:f2:4b:75:ec:79:2b:d5:9e:8b:4d:3d:15:2a:82:b6:
         f2:e3:94:86:9b:8e:82:24:2d:f9:28:4a:0c:06:c8:18:ec:80:
         fc:98:4c:84:17:be:df:a9:8a:44:30:fc:e0:3a:12:10:27:a9:
         fe:b1:e7:6d:e2:41:4f:19:a2:a2:e7:65:b7:94:56:0d:b6:7a:
         42:bb:62:cc
-----BEGIN CERTIFICATE-----
MIIEETCCAvmgAwIBAgIBATANBgkqhkiG9w0BAQsFADCBjjELMAkGA1UEBhMCQlIx
EjAQBgNVBAgMCVBhcmFuw4PCoTERMA8GA1UEBwwIQ3VyaXRpYmExDjAMBgNVBAoM
BVVURlBSMRswGQYDVQQDDBJBbGV4YW5kcmUgSCBNYXRpYXMxKzApBgkqhkiG9w0B
CQEWHGFsZXhhbmRyZWhtYXRpYXNAaG90bWFpbC5jb20wHhcNMjEwMzA0MjI0NTM5
WhcNMjIwMzA0MjI0NTM5WjCBizELMAkGA1UEBhMCQlIxEjAQBgNVBAgMCVBhcmFu
w4PCoTETMBEGA1UEBwwKTWFyaW5nw4PCoTEhMB8GA1UECgwYSW50ZXJuZXQgV2lk
Z2l0cyBQdHkgTHRkMRIwEAYDVQQDDAlHYWxvIENlZ28xHDAaBgkqhkiG9w0BCQEW
DWdhbG9AY2Vnby5jb20wggEiMA0GCSqGSIb3DQEBAQUAA4IBDwAwggEKAoIBAQCq
V6Rl2mEwdez5xNsZq6w98u25gv1Bp0iyovTDdDHcdZtxhLNVkILoPjzUcVJS9G3a
u9vAE2RpDmslsrbLu4ar6I8N+derKsaLPnbazDw8R20tWNW136qTeTC6ECV/yqpR
1pjr0vUtSVInqdsSuUYrck9KYKUwrTd1UmyN19+L6riHJeYr5XCkS8uhUxF79UC2
ZIOjMw5yZ/VwR6rdywq8sGCE0Jf981+9NmOLnAelflIDkqiwFq19RengzmO3lbqQ
CiLL0tqpccRUTZw1sDgRT2oxk8zL3EmjI5v0PykfF4FI+2el88lSWz3x+mzViTm6
ysfEkC4H2EzGULHM2bQZAgMBAAGjezB5MAkGA1UdEwQCMAAwLAYJYIZIAYb4QgEN
BB8WHU9wZW5TU0wgR2VuZXJhdGVkIENlcnRpZmljYXRlMB0GA1UdDgQWBBSI7RJU
P2Gd+KvORpGYMuJhH95hqjAfBgNVHSMEGDAWgBTrbZ/vD7cCA+j6PybzC0qkXpVd
ODANBgkqhkiG9w0BAQsFAAOCAQEAhexxKQhFJJhhjub04xB+Pfb8P63hMH3/5I2P
5rDNyopGV9JyFqfatv4Wm0hocmYqvn6sgEp4MwNc6UwPXN+rtRZHdl2ooqgyucte
czUnBNsFhBRmxdaVr6hVVFHQczxeF3ApPfOXqhu/k2CtC2hL5ZkWjicv+3wKlwDz
tR+B8IV6Hky/D+u6dpjpO6uKwFEPIn1ZtDnihkbdbG5O3F0NPi1jkMhJfQgyYQ7x
0nWSyov4v2rWhI438kt17Hkr1Z6LTT0VKoK28uOUhpuOgiQt+ShKDAbIGOyA/JhM
hBe+36mKRDD84DoSECep/rHnbeJBTxmioudlt5RWDbZ6QrtizA==
-----END CERTIFICATE-----
