Certificate Request:
    Data:
        Version: 1 (0x0)
        Subject: C = BR, ST = Paran\C3\83\C2\A1, L = Maring\C3\83\C2\A1, O = Internet Widgits Pty Ltd, CN = Galo Cego, emailAddress = galo@cego.com
        Subject Public Key Info:
            Public Key Algorithm: rsaEncryption
                RSA Public-Key: (2048 bit)
                Modulus:
                    00:aa:57:a4:65:da:61:30:75:ec:f9:c4:db:19:ab:
                    ac:3d:f2:ed:b9:82:fd:41:a7:48:b2:a2:f4:c3:74:
                    31:dc:75:9b:71:84:b3:55:90:82:e8:3e:3c:d4:71:
                    52:52:f4:6d:da:bb:db:c0:13:64:69:0e:6b:25:b2:
                    b6:cb:bb:86:ab:e8:8f:0d:f9:d7:ab:2a:c6:8b:3e:
                    76:da:cc:3c:3c:47:6d:2d:58:d5:b5:df:aa:93:79:
                    30:ba:10:25:7f:ca:aa:51:d6:98:eb:d2:f5:2d:49:
                    52:27:a9:db:12:b9:46:2b:72:4f:4a:60:a5:30:ad:
                    37:75:52:6c:8d:d7:df:8b:ea:b8:87:25:e6:2b:e5:
                    70:a4:4b:cb:a1:53:11:7b:f5:40:b6:64:83:a3:33:
                    0e:72:67:f5:70:47:aa:dd:cb:0a:bc:b0:60:84:d0:
                    97:fd:f3:5f:bd:36:63:8b:9c:07:a5:7e:52:03:92:
                    a8:b0:16:ad:7d:45:e9:e0:ce:63:b7:95:ba:90:0a:
                    22:cb:d2:da:a9:71:c4:54:4d:9c:35:b0:38:11:4f:
                    6a:31:93:cc:cb:dc:49:a3:23:9b:f4:3f:29:1f:17:
                    81:48:fb:67:a5:f3:c9:52:5b:3d:f1:fa:6c:d5:89:
                    39:ba:ca:c7:c4:90:2e:07:d8:4c:c6:50:b1:cc:d9:
                    b4:19
                Exponent: 65537 (0x10001)
        Attributes:
            a0:00
    Signature Algorithm: sha256WithRSAEncryption
         00:ca:38:09:25:fe:d3:b7:b7:53:af:f1:7c:4f:0d:b2:1d:88:
         1b:77:aa:b6:62:88:9e:2e:ba:48:42:86:38:6b:60:80:7e:e3:
         52:da:74:c9:be:bd:e1:c8:3c:d3:3c:78:66:86:e5:ee:65:32:
         77:3f:fa:25:00:db:0c:39:30:c2:6a:c3:5c:26:0d:69:9e:c9:
         fd:bd:d6:c8:60:b5:d5:a0:70:9f:ce:7f:c7:ae:1c:01:ab:40:
         b0:5d:e6:a8:ee:79:8f:cd:cc:02:6a:0e:67:2a:65:f6:7c:03:
         fe:43:35:3f:1c:d1:16:19:45:da:5d:c8:69:d6:88:10:d4:c3:
         e7:e1:1f:ed:54:b7:df:e0:c7:bf:cf:4a:60:e9:8e:c5:13:93:
         11:1b:03:61:9d:2b:e4:0e:79:cc:3f:44:44:a0:39:bd:16:86:
         db:18:51:f0:e3:8e:78:ba:b5:3c:e2:50:e7:72:a5:73:1a:27:
         15:c1:3a:11:8c:6e:95:11:6c:25:e3:4e:a8:47:eb:8e:b2:36:
         f1:cf:8c:20:6e:a1:5a:c1:1a:ea:b0:62:ea:24:fa:67:b7:56:
         c9:05:29:8f:be:03:bb:47:7e:91:82:00:83:ea:cf:8e:76:42:
         17:15:f8:1e:8e:86:21:1e:d3:d5:62:90:10:df:c9:f9:c0:dc:
         3d:83:d4:c3
-----BEGIN CERTIFICATE REQUEST-----
MIIC0TCCAbkCAQAwgYsxCzAJBgNVBAYTAkJSMRIwEAYDVQQIDAlQYXJhbsODwqEx
EzARBgNVBAcMCk1hcmluZ8ODwqExITAfBgNVBAoMGEludGVybmV0IFdpZGdpdHMg
UHR5IEx0ZDESMBAGA1UEAwwJR2FsbyBDZWdvMRwwGgYJKoZIhvcNAQkBFg1nYWxv
QGNlZ28uY29tMIIBIjANBgkqhkiG9w0BAQEFAAOCAQ8AMIIBCgKCAQEAqlekZdph
MHXs+cTbGausPfLtuYL9QadIsqL0w3Qx3HWbcYSzVZCC6D481HFSUvRt2rvbwBNk
aQ5rJbK2y7uGq+iPDfnXqyrGiz522sw8PEdtLVjVtd+qk3kwuhAlf8qqUdaY69L1
LUlSJ6nbErlGK3JPSmClMK03dVJsjdffi+q4hyXmK+VwpEvLoVMRe/VAtmSDozMO
cmf1cEeq3csKvLBghNCX/fNfvTZji5wHpX5SA5KosBatfUXp4M5jt5W6kAoiy9La
qXHEVE2cNbA4EU9qMZPMy9xJoyOb9D8pHxeBSPtnpfPJUls98fps1Yk5usrHxJAu
B9hMxlCxzNm0GQIDAQABoAAwDQYJKoZIhvcNAQELBQADggEBAADKOAkl/tO3t1Ov
8XxPDbIdiBt3qrZiiJ4uukhChjhrYIB+41LadMm+veHIPNM8eGaG5e5lMnc/+iUA
2ww5MMJqw1wmDWmeyf291shgtdWgcJ/Of8euHAGrQLBd5qjueY/NzAJqDmcqZfZ8
A/5DNT8c0RYZRdpdyGnWiBDUw+fhH+1Ut9/gx7/PSmDpjsUTkxEbA2GdK+QOecw/
RESgOb0WhtsYUfDjjni6tTziUOdypXMaJxXBOhGMbpURbCXjTqhH646yNvHPjCBu
oVrBGuqwYuok+me3VskFKY++A7tHfpGCAIPqz452QhcV+B6OhiEe09VikBDfyfnA
3D2D1MM=
-----END CERTIFICATE REQUEST-----
